; Function Attrs: mustprogress uwtable
define noundef zeroext i1 @_ZN2cv8saliency8Saliency15computeSaliencyERKNS_11_InputArrayERKNS_12_OutputArrayE(ptr noundef nonnull align 8 dereferenceable(40) %0, ptr noundef nonnull align 8 dereferenceable(24) %1, ptr noundef nonnull align 8 dereferenceable(24) %2) local_unnamed_addr #7 align 2 {
  %4 = tail call noundef zeroext i1 @_ZNK2cv11_InputArray5emptyEv(ptr noundef nonnull align 8 dereferenceable(24) %1)
  br i1 %4, label %10, label %5

5:                                                ; preds = %3
  %6 = load ptr, ptr %0, align 8, !tbaa !3
  %7 = getelementptr inbounds nuw i8, ptr %6, i64 64
  %8 = load ptr, ptr %7, align 8
  %9 = tail call noundef zeroext i1 %8(ptr noundef nonnull align 8 dereferenceable(40) %0, ptr noundef nonnull align 8 dereferenceable(24) %1, ptr noundef nonnull align 8 dereferenceable(24) %2)
  br label %10

10:                                               ; preds = %3, %5
  %.0 = phi i1 [ %9, %5 ], [ false, %3 ]
  ret i1 %.0
}